target datalayout = "e-m:e-p270:32:32-p271:32:32-p272:64:64-i64:64-i128:128-f80:128-n8:16:32:64-S128"
target triple = "x86_64-pc-linux-gnu"

%struct.pg_wchar_tbl = type { ptr, ptr, ptr, ptr, ptr, ptr, i32 }

; Function Attrs: nounwind uwtable
define dso_local i32 @pg_encoding_mblen(i32 noundef %0, ptr noundef %1) #1 {
  %3 = alloca i32, align 4
  %4 = alloca ptr, align 8
  store i32 %0, ptr %3, align 4
  store ptr %1, ptr %4, align 8
  %5 = load i32, ptr %3, align 4
  %6 = icmp sge i32 %5, 0
  br i1 %6, label %7, label %18

7:                                                ; preds = %2
  %8 = load i32, ptr %3, align 4
  %9 = icmp slt i32 %8, 42
  br i1 %9, label %10, label %18

10:                                               ; preds = %7
  %11 = load i32, ptr %3, align 4
  %12 = sext i32 %11 to i64
  %13 = getelementptr inbounds [42 x %struct.pg_wchar_tbl], ptr @pg_wchar_table, i64 0, i64 %12
  %14 = getelementptr inbounds nuw %struct.pg_wchar_tbl, ptr %13, i32 0, i32 2
  %15 = load ptr, ptr %14, align 8
  %16 = load ptr, ptr %4, align 8
  %17 = call i32 %15(ptr noundef %16)
  br label %22

18:                                               ; preds = %7, %2
  %19 = load ptr, ptr getelementptr inbounds nuw (%struct.pg_wchar_tbl, ptr @pg_wchar_table, i32 0, i32 2), align 16
  %20 = load ptr, ptr %4, align 8
  %21 = call i32 %19(ptr noundef %20)
  br label %22

22:                                               ; preds = %18, %10
  %23 = phi i32 [ %17, %10 ], [ %21, %18 ]
  ret i32 %23
}

; Function Attrs: nounwind uwtable
define dso_local i32 @pg_encoding_mblen_bounded(i32 noundef %0, ptr noundef %1) #1 {
  %3 = alloca i32, align 4
  %4 = alloca ptr, align 8
  store i32 %0, ptr %3, align 4
  store ptr %1, ptr %4, align 8
  %5 = load ptr, ptr %4, align 8
  %6 = load i32, ptr %3, align 4
  %7 = load ptr, ptr %4, align 8
  %8 = call i32 @pg_encoding_mblen(i32 noundef %6, ptr noundef %7)
  %9 = sext i32 %8 to i64
  %10 = call i64 @strnlen(ptr noundef %5, i64 noundef %9) #8
  %11 = trunc i64 %10 to i32
  ret i32 %11
}