; Function Attrs: nounwind uwtable
define dso_local i32 @pg_encoding_mblen_bounded(i32 noundef %0, ptr noundef %1) local_unnamed_addr #7 {
  %or.cond.i = icmp ult i32 %0, 42
  br i1 %or.cond.i, label %3, label %pg_encoding_mblen.exit

3:                                                ; preds = %2
  %4 = zext nneg i32 %0 to i64
  %5 = getelementptr inbounds nuw [42 x %struct.pg_wchar_tbl], ptr @pg_wchar_table, i64 0, i64 %4, i32 2
  %6 = load ptr, ptr %5, align 8
  %7 = tail call i32 %6(ptr noundef %1) #10
  %8 = sext i32 %7 to i64
  br label %pg_encoding_mblen.exit

pg_encoding_mblen.exit:                           ; preds = %2, %3
  %9 = phi i64 [ %8, %3 ], [ 1, %2 ]
  %10 = tail call i64 @strnlen(ptr noundef %1, i64 noundef %9) #9
  %11 = trunc i64 %10 to i32
  ret i32 %11
}